target datalayout = "e-m:e-p270:32:32-p271:32:32-p272:64:64-i64:64-i128:128-f80:128-n8:16:32:64-S128"
target triple = "x86_64-pc-linux-gnu"

%struct._php_ps_globals = type { ptr, ptr, ptr, ptr, ptr, i64, ptr, ptr, ptr, i8, i8, ptr, ptr, ptr, i32, ptr, i32, i32, %struct._php_random_status_state_pcgoneseq128xslrr64, %struct._php_random_algo_with_state, i64, i64, i64, i64, %struct.anon, ptr, i8, i8, i8, i8, i8, i8, i8, i8, ptr, %struct._zval_struct, i64, i64, ptr, ptr, ptr, i64, double, i8, i8, i8, i8, i8, i8, ptr }
%struct._php_random_status_state_pcgoneseq128xslrr64 = type { i128 }
%struct._php_random_algo_with_state = type { ptr, ptr }
%struct.anon = type { %struct._zval_struct, %struct._zval_struct, %struct._zval_struct, %struct._zval_struct, %struct._zval_struct, %struct._zval_struct, %struct._zval_struct, %struct._zval_struct, %struct._zval_struct }
%struct._zval_struct = type { %union._zend_value, %union.anon, %union.anon.3 }
%union._zend_value = type { i64 }
%union.anon = type { i32 }
%union.anon.3 = type { i32 }
%struct._zend_array = type { %struct._zend_refcounted_h, %union.anon.5, i32, %union.anon.7, i32, i32, i32, i32, i64, ptr }
%struct._zend_refcounted_h = type { i32, %union.anon.4 }
%union.anon.4 = type { i32 }
%union.anon.5 = type { i32 }
%union.anon.7 = type { ptr }
%struct._zend_reference = type { %struct._zend_refcounted_h, %struct._zval_struct, %union.zend_property_info_source_list }
%union.zend_property_info_source_list = type { ptr }
%struct._Bucket = type { %struct._zval_struct, i64, ptr }

@ps_globals = global %struct._php_ps_globals zeroinitializer, align 16
@.str.3 = private unnamed_addr constant [25 x i8] c"Skipping numeric key %ld\00", align 1

; Function Attrs: nounwind uwtable
define ptr @php_get_session_var(ptr noundef %0) #0 {
  %2 = alloca ptr, align 8
  %3 = alloca ptr, align 8
  %4 = alloca ptr, align 8
  %5 = alloca ptr, align 8
  store ptr %0, ptr %5, align 8
  store ptr getelementptr inbounds (%struct._php_ps_globals, ptr @ps_globals, i32 0, i32 35), ptr %2, align 8
  %6 = load ptr, ptr %2, align 8
  %7 = getelementptr inbounds %struct._zval_struct, ptr %6, i32 0, i32 1
  %8 = load i8, ptr %7, align 8
  %9 = zext i8 %8 to i32
  %10 = icmp eq i32 %9, 10
  br i1 %10, label %11, label %26

11:                                               ; preds = %1
  %12 = load ptr, ptr getelementptr inbounds (%struct._php_ps_globals, ptr @ps_globals, i32 0, i32 35), align 8
  %13 = getelementptr inbounds %struct._zend_reference, ptr %12, i32 0, i32 1
  store ptr %13, ptr %3, align 8
  %14 = load ptr, ptr %3, align 8
  %15 = getelementptr inbounds %struct._zval_struct, ptr %14, i32 0, i32 1
  %16 = load i8, ptr %15, align 8
  %17 = zext i8 %16 to i32
  %18 = icmp eq i32 %17, 7
  br i1 %18, label %19, label %26

19:                                               ; preds = %11
  %20 = load ptr, ptr getelementptr inbounds (%struct._php_ps_globals, ptr @ps_globals, i32 0, i32 35), align 8
  %21 = getelementptr inbounds %struct._zend_reference, ptr %20, i32 0, i32 1
  %22 = getelementptr inbounds %struct._zval_struct, ptr %21, i32 0, i32 0
  %23 = load ptr, ptr %22, align 8
  %24 = load ptr, ptr %5, align 8
  %25 = call ptr @zend_hash_find(ptr noundef %23, ptr noundef %24)
  store ptr %25, ptr %4, align 8
  br label %27

26:                                               ; preds = %11, %1
  store ptr null, ptr %4, align 8
  br label %27

27:                                               ; preds = %26, %19
  %28 = load ptr, ptr %4, align 8
  ret ptr %28
}

; Function Attrs: nounwind uwtable
define internal void @php_session_normalize_vars() #0 {
  %1 = alloca ptr, align 8
  %2 = alloca ptr, align 8
  %3 = alloca ptr, align 8
  %4 = alloca ptr, align 8
  %5 = alloca ptr, align 8
  %6 = alloca i64, align 8
  %7 = alloca ptr, align 8
  %8 = alloca ptr, align 8
  %9 = alloca ptr, align 8
  %10 = alloca i64, align 8
  %11 = alloca ptr, align 8
  %12 = alloca i32, align 4
  %13 = alloca i64, align 8
  %14 = alloca ptr, align 8
  %15 = alloca i32, align 4
  %16 = alloca ptr, align 8
  %17 = alloca ptr, align 8
  %18 = alloca ptr, align 8
  %19 = alloca ptr, align 8
  %20 = alloca ptr, align 8
  %21 = alloca ptr, align 8
  %22 = alloca i32, align 4
  store ptr getelementptr inbounds (%struct._php_ps_globals, ptr @ps_globals, i32 0, i32 35), ptr %1, align 8
  %23 = load ptr, ptr %1, align 8
  %24 = getelementptr inbounds %struct._zval_struct, ptr %23, i32 0, i32 1
  %25 = load i8, ptr %24, align 8
  %26 = zext i8 %25 to i32
  %27 = icmp eq i32 %26, 10
  br i1 %27, label %28, label %158

28:                                               ; preds = %0
  %29 = load ptr, ptr getelementptr inbounds (%struct._php_ps_globals, ptr @ps_globals, i32 0, i32 35), align 8
  %30 = getelementptr inbounds %struct._zend_reference, ptr %29, i32 0, i32 1
  store ptr %30, ptr %2, align 8
  %31 = load ptr, ptr %2, align 8
  %32 = getelementptr inbounds %struct._zval_struct, ptr %31, i32 0, i32 1
  %33 = load i8, ptr %32, align 8
  %34 = zext i8 %33 to i32
  %35 = icmp eq i32 %34, 7
  br i1 %35, label %36, label %158

36:                                               ; preds = %28
  br label %37

37:                                               ; preds = %36
  %38 = load ptr, ptr getelementptr inbounds (%struct._php_ps_globals, ptr @ps_globals, i32 0, i32 35), align 8
  %39 = getelementptr inbounds %struct._zend_reference, ptr %38, i32 0, i32 1
  %40 = getelementptr inbounds %struct._zval_struct, ptr %39, i32 0, i32 0
  %41 = load ptr, ptr %40, align 8
  store ptr %41, ptr %8, align 8
  br label %42

42:                                               ; preds = %37
  %43 = load ptr, ptr %8, align 8
  store ptr %43, ptr %9, align 8
  store ptr null, ptr %11, align 8
  store i32 0, ptr %12, align 4
  %44 = load ptr, ptr %9, align 8
  %45 = getelementptr inbounds %struct._zend_array, ptr %44, i32 0, i32 1
  %46 = load i32, ptr %45, align 8
  %47 = xor i32 %46, -1
  %48 = and i32 %47, 4
  %49 = zext i32 %48 to i64
  %50 = mul i64 %49, 4
  %51 = add i64 16, %50
  store i64 %51, ptr %13, align 8
  %52 = load ptr, ptr %9, align 8
  %53 = getelementptr inbounds %struct._zend_array, ptr %52, i32 0, i32 3
  %54 = load ptr, ptr %53, align 8
  %55 = load i32, ptr %12, align 4
  %56 = zext i32 %55 to i64
  %57 = load i64, ptr %13, align 8
  %58 = mul i64 %56, %57
  %59 = getelementptr inbounds i8, ptr %54, i64 %58
  store ptr %59, ptr %14, align 8
  %60 = load ptr, ptr %9, align 8
  %61 = getelementptr inbounds %struct._zend_array, ptr %60, i32 0, i32 4
  %62 = load i32, ptr %61, align 8
  %63 = load i32, ptr %12, align 4
  %64 = sub i32 %62, %63
  store i32 %64, ptr %15, align 4
  br label %65

65:                                               ; preds = %152, %42
  %66 = load i32, ptr %15, align 4
  %67 = icmp ugt i32 %66, 0
  br i1 %67, label %68, label %155

68:                                               ; preds = %65
  %69 = load ptr, ptr %14, align 8
  store ptr %69, ptr %16, align 8
  %70 = load ptr, ptr %9, align 8
  %71 = getelementptr inbounds %struct._zend_array, ptr %70, i32 0, i32 1
  %72 = load i32, ptr %71, align 8
  %73 = and i32 %72, 4
  %74 = icmp ne i32 %73, 0
  br i1 %74, label %75, label %82

75:                                               ; preds = %68
  %76 = load ptr, ptr %14, align 8
  %77 = getelementptr inbounds %struct._zval_struct, ptr %76, i32 1
  store ptr %77, ptr %14, align 8
  %78 = load i32, ptr %12, align 4
  %79 = zext i32 %78 to i64
  store i64 %79, ptr %10, align 8
  %80 = load i32, ptr %12, align 4
  %81 = add i32 %80, 1
  store i32 %81, ptr %12, align 4
  br label %93

82:                                               ; preds = %68
  %83 = load ptr, ptr %14, align 8
  store ptr %83, ptr %17, align 8
  %84 = load ptr, ptr %17, align 8
  %85 = getelementptr inbounds %struct._Bucket, ptr %84, i64 1
  %86 = getelementptr inbounds %struct._Bucket, ptr %85, i32 0, i32 0
  store ptr %86, ptr %14, align 8
  %87 = load ptr, ptr %17, align 8
  %88 = getelementptr inbounds %struct._Bucket, ptr %87, i32 0, i32 1
  %89 = load i64, ptr %88, align 8
  store i64 %89, ptr %10, align 8
  %90 = load ptr, ptr %17, align 8
  %91 = getelementptr inbounds %struct._Bucket, ptr %90, i32 0, i32 2
  %92 = load ptr, ptr %91, align 8
  store ptr %92, ptr %11, align 8
  br label %93

93:                                               ; preds = %82, %75
  %94 = load ptr, ptr %16, align 8
  store ptr %94, ptr %3, align 8
  %95 = load ptr, ptr %3, align 8
  %96 = getelementptr inbounds %struct._zval_struct, ptr %95, i32 0, i32 1
  %97 = load i8, ptr %96, align 8
  %98 = zext i8 %97 to i32
  %99 = icmp eq i32 %98, 0
  %100 = xor i1 %99, true
  %101 = xor i1 %100, true
  %102 = zext i1 %101 to i32
  %103 = sext i32 %102 to i64
  %104 = icmp ne i64 %103, 0
  br i1 %104, label %105, label %106

105:                                              ; preds = %93
  br label %152

106:                                              ; preds = %93
  %107 = load i64, ptr %10, align 8
  store i64 %107, ptr %6, align 8
  %108 = load ptr, ptr %11, align 8
  store ptr %108, ptr %5, align 8
  %109 = load ptr, ptr %5, align 8
  %110 = icmp eq ptr %109, null
  br i1 %110, label %111, label %113

111:                                              ; preds = %106
  %112 = load i64, ptr %6, align 8
  call void (ptr, i32, ptr, ...) @php_error_docref(ptr noundef null, i32 noundef 2, ptr noundef @.str.3, i64 noundef %112)
  br label %152

113:                                              ; preds = %106
  %114 = load ptr, ptr %5, align 8
  %115 = call ptr @php_get_session_var(ptr noundef %114)
  store ptr %115, ptr %7, align 8
  %116 = icmp ne ptr %115, null
  br i1 %116, label %117, label %151

117:                                              ; preds = %113
  %118 = load ptr, ptr %7, align 8
  store ptr %118, ptr %4, align 8
  %119 = load ptr, ptr %4, align 8
  %120 = getelementptr inbounds %struct._zval_struct, ptr %119, i32 0, i32 1
  %121 = load i8, ptr %120, align 8
  %122 = zext i8 %121 to i32
  %123 = icmp eq i32 %122, 13
  br i1 %123, label %124, label %150

124:                                              ; preds = %117
  %125 = load ptr, ptr %7, align 8
  %126 = getelementptr inbounds %struct._zval_struct, ptr %125, i32 0, i32 0
  %127 = load ptr, ptr %126, align 8
  store ptr %127, ptr %18, align 8
  br label %128

128:                                              ; preds = %124
  %129 = load ptr, ptr %7, align 8
  store ptr %129, ptr %19, align 8
  %130 = load ptr, ptr %18, align 8
  store ptr %130, ptr %20, align 8
  %131 = load ptr, ptr %20, align 8
  %132 = getelementptr inbounds %struct._zval_struct, ptr %131, i32 0, i32 0
  %133 = load ptr, ptr %132, align 8
  store ptr %133, ptr %21, align 8
  %134 = load ptr, ptr %20, align 8
  %135 = getelementptr inbounds %struct._zval_struct, ptr %134, i32 0, i32 1
  %136 = load i32, ptr %135, align 8
  store i32 %136, ptr %22, align 4
  br label %137

137:                                              ; preds = %128
  %138 = load ptr, ptr %21, align 8
  %139 = load ptr, ptr %19, align 8
  %140 = getelementptr inbounds %struct._zval_struct, ptr %139, i32 0, i32 0
  store ptr %138, ptr %140, align 8
  %141 = load i32, ptr %22, align 4
  %142 = load ptr, ptr %19, align 8
  %143 = getelementptr inbounds %struct._zval_struct, ptr %142, i32 0, i32 1
  store i32 %141, ptr %143, align 8
  br label %144

144:                                              ; preds = %137
  br label %145

145:                                              ; preds = %144
  br label %146

146:                                              ; preds = %145
  %147 = load ptr, ptr %18, align 8
  %148 = getelementptr inbounds %struct._zval_struct, ptr %147, i32 0, i32 1
  store i32 0, ptr %148, align 8
  br label %149

149:                                              ; preds = %146
  br label %150

150:                                              ; preds = %149, %117
  br label %151

151:                                              ; preds = %150, %113
  br label %152

152:                                              ; preds = %151, %111, %105
  %153 = load i32, ptr %15, align 4
  %154 = add i32 %153, -1
  store i32 %154, ptr %15, align 4
  br label %65

155:                                              ; preds = %65
  br label %156

156:                                              ; preds = %155
  br label %157

157:                                              ; preds = %156
  br label %158

158:                                              ; preds = %157, %28, %0
  ret void
}