; Function Attrs: nounwind uwtable
define internal fastcc void @php_session_normalize_vars() unnamed_addr #0 {
  %1 = load i8, ptr getelementptr inbounds (%struct._php_ps_globals, ptr @ps_globals, i64 0, i32 35, i32 1), align 16
  %2 = icmp eq i8 %1, 10
  br i1 %2, label %3, label %.loopexit

3:                                                ; preds = %0
  %4 = load ptr, ptr getelementptr inbounds (%struct._php_ps_globals, ptr @ps_globals, i64 0, i32 35), align 8
  %5 = getelementptr inbounds i8, ptr %4, i64 16
  %6 = load i8, ptr %5, align 8
  %7 = icmp eq i8 %6, 7
  br i1 %7, label %8, label %.loopexit

8:                                                ; preds = %3
  %9 = getelementptr inbounds i8, ptr %4, i64 8
  %10 = load ptr, ptr %9, align 8
  %11 = getelementptr inbounds i8, ptr %10, i64 8
  %12 = getelementptr inbounds i8, ptr %10, i64 24
  %13 = load i32, ptr %12, align 8
  %.not49 = icmp eq i32 %13, 0
  br i1 %.not49, label %.loopexit, label %.lr.ph.preheader

.lr.ph.preheader:                                 ; preds = %8
  %14 = getelementptr inbounds i8, ptr %10, i64 16
  %15 = load ptr, ptr %14, align 8
  br label %.lr.ph

.lr.ph:                                           ; preds = %.lr.ph.preheader, %php_get_session_var.exit.thread
  %.03853 = phi ptr [ %.1, %php_get_session_var.exit.thread ], [ null, %.lr.ph.preheader ]
  %.03952 = phi i32 [ %.140, %php_get_session_var.exit.thread ], [ 0, %.lr.ph.preheader ]
  %.04151 = phi ptr [ %.142, %php_get_session_var.exit.thread ], [ %15, %.lr.ph.preheader ]
  %.04350 = phi i32 [ %55, %php_get_session_var.exit.thread ], [ %13, %.lr.ph.preheader ]
  %16 = load i32, ptr %11, align 8
  %17 = and i32 %16, 4
  %.not45 = icmp eq i32 %17, 0
  br i1 %.not45, label %22, label %18

18:                                               ; preds = %.lr.ph
  %19 = getelementptr inbounds i8, ptr %.04151, i64 16
  %20 = zext i32 %.03952 to i64
  %21 = add i32 %.03952, 1
  br label %28

22:                                               ; preds = %.lr.ph
  %23 = getelementptr inbounds i8, ptr %.04151, i64 32
  %24 = getelementptr inbounds i8, ptr %.04151, i64 16
  %25 = load i64, ptr %24, align 8
  %26 = getelementptr inbounds i8, ptr %.04151, i64 24
  %27 = load ptr, ptr %26, align 8
  br label %28

28:                                               ; preds = %22, %18
  %.142 = phi ptr [ %19, %18 ], [ %23, %22 ]
  %.140 = phi i32 [ %21, %18 ], [ %.03952, %22 ]
  %.1 = phi ptr [ %.03853, %18 ], [ %27, %22 ]
  %.0 = phi i64 [ %20, %18 ], [ %25, %22 ]
  %29 = getelementptr inbounds i8, ptr %.04151, i64 8
  %30 = load i8, ptr %29, align 8
  %31 = icmp eq i8 %30, 0
  br i1 %31, label %php_get_session_var.exit.thread, label %32

32:                                               ; preds = %28
  %33 = icmp eq ptr %.1, null
  br i1 %33, label %34, label %35

34:                                               ; preds = %32
  tail call void (ptr, i32, ptr, ...) @php_error_docref(ptr noundef null, i32 noundef 2, ptr noundef nonnull @.str.3, i64 noundef %.0) #23
  br label %php_get_session_var.exit.thread

35:                                               ; preds = %32
  %36 = load i8, ptr getelementptr inbounds (%struct._php_ps_globals, ptr @ps_globals, i64 0, i32 35, i32 1), align 16
  %37 = icmp eq i8 %36, 10
  br i1 %37, label %38, label %php_get_session_var.exit.thread

38:                                               ; preds = %35
  %39 = load ptr, ptr getelementptr inbounds (%struct._php_ps_globals, ptr @ps_globals, i64 0, i32 35), align 8
  %40 = getelementptr inbounds i8, ptr %39, i64 16
  %41 = load i8, ptr %40, align 8
  %42 = icmp eq i8 %41, 7
  br i1 %42, label %php_get_session_var.exit, label %php_get_session_var.exit.thread

php_get_session_var.exit:                         ; preds = %38
  %43 = getelementptr inbounds i8, ptr %39, i64 8
  %44 = load ptr, ptr %43, align 8
  %45 = tail call ptr @zend_hash_find(ptr noundef %44, ptr noundef nonnull %.1) #23
  %.not46 = icmp eq ptr %45, null
  br i1 %.not46, label %php_get_session_var.exit.thread, label %46

46:                                               ; preds = %php_get_session_var.exit
  %47 = getelementptr inbounds i8, ptr %45, i64 8
  %48 = load i8, ptr %47, align 8
  %49 = icmp eq i8 %48, 13
  br i1 %49, label %50, label %php_get_session_var.exit.thread

50:                                               ; preds = %46
  %51 = load ptr, ptr %45, align 8
  %52 = load ptr, ptr %51, align 8
  %53 = getelementptr inbounds i8, ptr %51, i64 8
  %54 = load i32, ptr %53, align 8
  store ptr %52, ptr %45, align 8
  store i32 %54, ptr %47, align 8
  store i32 0, ptr %53, align 8
  br label %php_get_session_var.exit.thread

php_get_session_var.exit.thread:                  ; preds = %35, %38, %php_get_session_var.exit, %50, %46, %28, %34
  %55 = add i32 %.04350, -1
  %.not = icmp eq i32 %55, 0
  br i1 %.not, label %.loopexit, label %.lr.ph

.loopexit:                                        ; preds = %php_get_session_var.exit.thread, %8, %3, %0
  ret void
}